; Function Attrs: mustprogress nofree norecurse nosync nounwind willreturn memory(argmem: read) uwtable
define noundef zeroext i1 @_ZN8facebook5velox6memory13MmapAllocator9useMallocEm(ptr nocapture noundef nonnull readonly align 8 dereferenceable(1080) %this, i64 noundef %bytes) local_unnamed_addr #10 align 2 {
entry:
  %maxMallocBytes_ = getelementptr inbounds i8, ptr %this, i64 936
  %0 = load i32, ptr %maxMallocBytes_, align 8
  %cmp.not = icmp ne i32 %0, 0
  %conv = sext i32 %0 to i64
  %cmp3 = icmp uge i64 %conv, %bytes
  %1 = and i1 %cmp.not, %cmp3
  ret i1 %1
}